; Function Attrs: mustprogress uwtable
define hidden noundef zeroext i1 @_ZNK14bv_recognizers7is_zeroEPK4expr(ptr noundef nonnull readonly align 4 captures(none) dereferenceable(4) %0, ptr noundef readonly captures(none) %1) local_unnamed_addr #3 align 2 {
  %3 = load i32, ptr %0, align 4, !tbaa !179
  %4 = getelementptr inbounds nuw i8, ptr %1, i64 4
  %5 = load i32, ptr %4, align 4
  %6 = and i32 %5, 65535
  %7 = icmp eq i32 %6, 0
  br i1 %7, label %8, label %_Z9is_app_ofPK4exprii.exit.thread

8:                                                ; preds = %2
  %9 = getelementptr inbounds nuw i8, ptr %1, i64 16
  %10 = load ptr, ptr %9, align 8, !tbaa !163
  %11 = getelementptr inbounds nuw i8, ptr %10, i64 24
  %12 = load ptr, ptr %11, align 8, !tbaa !134
  %.not.i.i.i = icmp eq ptr %12, null
  br i1 %.not.i.i.i, label %_Z9is_app_ofPK4exprii.exit.thread, label %_Z9is_app_ofPK4exprii.exit

_Z9is_app_ofPK4exprii.exit:                       ; preds = %8
  %13 = load i32, ptr %12, align 8, !tbaa !19
  %14 = icmp eq i32 %13, %3
  %15 = getelementptr inbounds nuw i8, ptr %12, i64 4
  %16 = load i32, ptr %15, align 4
  %17 = icmp eq i32 %16, 0
  %18 = select i1 %14, i1 %17, i1 false
  br i1 %18, label %19, label %_Z9is_app_ofPK4exprii.exit.thread

19:                                               ; preds = %_Z9is_app_ofPK4exprii.exit
  %20 = getelementptr inbounds nuw i8, ptr %12, i64 8
  %21 = load ptr, ptr %20, align 8, !tbaa !37
  %22 = getelementptr inbounds nuw i8, ptr %21, i64 8
  %23 = load i8, ptr %22, align 8, !tbaa !117
  %.not.i.i.i5 = icmp eq i8 %23, 4
  br i1 %.not.i.i.i5, label %_ZNK9parameter12get_rationalEv.exit, label %24

24:                                               ; preds = %19
  %25 = tail call ptr @__cxa_allocate_exception(i64 16) #24
  store ptr getelementptr inbounds nuw inrange(-16, 24) (i8, ptr @_ZTVSt18bad_variant_access, i64 16), ptr %25, align 8, !tbaa !11
  %26 = getelementptr inbounds nuw i8, ptr %25, i64 8
  store ptr @.str.113, ptr %26, align 8, !tbaa !130
  tail call void @__cxa_throw(ptr nonnull %25, ptr nonnull @_ZTISt18bad_variant_access, ptr nonnull @_ZNSt9exceptionD2Ev) #26
  unreachable

_ZNK9parameter12get_rationalEv.exit:              ; preds = %19
  %27 = load ptr, ptr %21, align 8, !tbaa !141
  %28 = load i32, ptr %27, align 8, !tbaa !143
  %29 = icmp eq i32 %28, 0
  br label %_Z9is_app_ofPK4exprii.exit.thread

_Z9is_app_ofPK4exprii.exit.thread:                ; preds = %8, %2, %_Z9is_app_ofPK4exprii.exit, %_ZNK9parameter12get_rationalEv.exit
  %.0 = phi i1 [ %29, %_ZNK9parameter12get_rationalEv.exit ], [ false, %_Z9is_app_ofPK4exprii.exit ], [ false, %2 ], [ false, %8 ]
  ret i1 %.0
}